; Function Attrs: nounwind uwtable
define ptr @l_Lean_SMap_fold___at___private_Lean_Meta_Tactic_ElimInfo_0__Lean_Meta_reprCustomEliminators____x40_Lean_Meta_Tactic_ElimInfo___hyg_2408____spec__2___rarg___boxed(ptr noundef %0, ptr noundef %1, ptr noundef %2) #1 {
  %4 = getelementptr inbounds nuw i8, ptr %2, i64 8
  %5 = getelementptr inbounds nuw i8, ptr %2, i64 16
  %6 = load ptr, ptr %5, align 8, !tbaa !9
  %7 = load ptr, ptr %4, align 8, !tbaa !9
  %8 = getelementptr inbounds nuw i8, ptr %7, i64 16
  %9 = load ptr, ptr %8, align 8, !tbaa !9
  %10 = getelementptr i8, ptr %9, i64 8
  %.val.i = load i64, ptr %10, align 8, !tbaa !12
  %.mask.i = and i64 %.val.i, 9223372036854775807
  %.not.i5 = icmp eq i64 %.mask.i, 0
  br i1 %.not.i5, label %l_Lean_SMap_fold___at___private_Lean_Meta_Tactic_ElimInfo_0__Lean_Meta_reprCustomEliminators____x40_Lean_Meta_Tactic_ElimInfo___hyg_2408____spec__2___rarg.exit, label %lean_dec.exit.i

lean_dec.exit.i:                                  ; preds = %3
  %11 = ptrtoint ptr %0 to i64
  %12 = and i64 %11, 1
  %.not42.i = icmp eq i64 %12, 0
  br i1 %.not42.i, label %13, label %lean_inc.exit.i

13:                                               ; preds = %lean_dec.exit.i
  %.val.i.i = load i32, ptr %0, align 4, !tbaa !4
  %14 = icmp sgt i32 %.val.i.i, 0
  br i1 %14, label %15, label %17, !prof !11

15:                                               ; preds = %13
  %16 = add nuw i32 %.val.i.i, 1
  store i32 %16, ptr %0, align 4, !tbaa !4
  br label %lean_inc.exit.i

17:                                               ; preds = %13
  %.not.i41.i = icmp eq i32 %.val.i.i, 0
  br i1 %.not.i41.i, label %lean_inc.exit.i, label %18

18:                                               ; preds = %17
  tail call void @lean_inc_ref_cold(ptr noundef nonnull %0) #5
  br label %lean_inc.exit.i

lean_inc.exit.i:                                  ; preds = %18, %17, %15, %lean_dec.exit.i
  %19 = tail call ptr @l_Array_foldlMUnsafe_fold___at___private_Lean_Meta_Tactic_ElimInfo_0__Lean_Meta_reprCustomEliminators____x40_Lean_Meta_Tactic_ElimInfo___hyg_2408____spec__6___rarg(ptr noundef %0, ptr noundef nonnull %9, i64 noundef 0, i64 noundef %.mask.i, ptr noundef %1)
  br label %l_Lean_SMap_fold___at___private_Lean_Meta_Tactic_ElimInfo_0__Lean_Meta_reprCustomEliminators____x40_Lean_Meta_Tactic_ElimInfo___hyg_2408____spec__2___rarg.exit

l_Lean_SMap_fold___at___private_Lean_Meta_Tactic_ElimInfo_0__Lean_Meta_reprCustomEliminators____x40_Lean_Meta_Tactic_ElimInfo___hyg_2408____spec__2___rarg.exit: ; preds = %3, %lean_inc.exit.i
  %.sink.i = phi ptr [ %19, %lean_inc.exit.i ], [ %1, %3 ]
  %20 = tail call ptr @l_Lean_PersistentHashMap_foldlMAux___at_Lean_MetavarContext_getExprAssignmentDomain___spec__2___rarg(ptr noundef %0, ptr noundef %6, ptr noundef %.sink.i) #5
  %21 = ptrtoint ptr %2 to i64
  %22 = and i64 %21, 1
  %.not = icmp eq i64 %22, 0
  br i1 %.not, label %23, label %lean_dec.exit

23:                                               ; preds = %l_Lean_SMap_fold___at___private_Lean_Meta_Tactic_ElimInfo_0__Lean_Meta_reprCustomEliminators____x40_Lean_Meta_Tactic_ElimInfo___hyg_2408____spec__2___rarg.exit
  %24 = load i32, ptr %2, align 4, !tbaa !4
  %25 = icmp sgt i32 %24, 1
  br i1 %25, label %26, label %28, !prof !11

26:                                               ; preds = %23
  %27 = add nsw i32 %24, -1
  store i32 %27, ptr %2, align 4, !tbaa !4
  br label %lean_dec.exit

28:                                               ; preds = %23
  %.not.i = icmp eq i32 %24, 0
  br i1 %.not.i, label %lean_dec.exit, label %29

29:                                               ; preds = %28
  tail call void @lean_dec_ref_cold(ptr noundef nonnull %2) #5
  br label %lean_dec.exit

lean_dec.exit:                                    ; preds = %29, %28, %26, %l_Lean_SMap_fold___at___private_Lean_Meta_Tactic_ElimInfo_0__Lean_Meta_reprCustomEliminators____x40_Lean_Meta_Tactic_ElimInfo___hyg_2408____spec__2___rarg.exit
  ret ptr %20
}